target datalayout = "e-m:e-p270:32:32-p271:32:32-p272:64:64-i64:64-i128:128-f80:128-n8:16:32:64-S128"
target triple = "x86_64-pc-linux-gnu"

%struct.malloc_state = type { i32, i32, i64, i64, ptr, ptr, ptr, i64, i64, i64, [66 x ptr], [32 x ptr], i64, i64, i64, i32, i32, %struct.malloc_segment, ptr, i64 }
%struct.malloc_segment = type { ptr, i64, ptr, i32 }
%struct.malloc_chunk = type { i64, i64, ptr, ptr }

; Function Attrs: nounwind uwtable
define internal i32 @spin_acquire_lock(ptr noundef %0) #0 {
  %2 = alloca ptr, align 8
  %3 = alloca i32, align 4
  store ptr %0, ptr %2, align 8, !tbaa !16
  call void @llvm.lifetime.start.p0(i64 4, ptr %3) #9
  store i32 0, ptr %3, align 4, !tbaa !14
  br label %4

4:                                                ; preds = %21, %1
  %5 = load ptr, ptr %2, align 8, !tbaa !16
  %6 = load volatile i32, ptr %5, align 4, !tbaa !14
  %7 = icmp ne i32 %6, 0
  br i1 %7, label %12, label %8

8:                                                ; preds = %4
  %9 = load ptr, ptr %2, align 8, !tbaa !16
  %10 = atomicrmw xchg ptr %9, i32 1 seq_cst, align 4
  %11 = icmp ne i32 %10, 0
  br label %12

12:                                               ; preds = %8, %4
  %13 = phi i1 [ true, %4 ], [ %11, %8 ]
  br i1 %13, label %14, label %22

14:                                               ; preds = %12
  %15 = load i32, ptr %3, align 4, !tbaa !14
  %16 = add nsw i32 %15, 1
  store i32 %16, ptr %3, align 4, !tbaa !14
  %17 = and i32 %16, 63
  %18 = icmp eq i32 %17, 0
  br i1 %18, label %19, label %21

19:                                               ; preds = %14
  %20 = call i32 @sched_yield() #9
  br label %21

21:                                               ; preds = %19, %14
  br label %4, !llvm.loop !34

22:                                               ; preds = %12
  call void @llvm.lifetime.end.p0(i64 4, ptr %3) #9
  ret i32 0
}

; Function Attrs: nounwind uwtable
define internal i64 @internal_bulk_free(ptr noundef %0, ptr noundef %1, i64 noundef %2) #0 {
  %4 = alloca ptr, align 8
  %5 = alloca ptr, align 8
  %6 = alloca i64, align 8
  %7 = alloca i64, align 8
  %8 = alloca ptr, align 8
  %9 = alloca ptr, align 8
  %10 = alloca ptr, align 8
  %11 = alloca ptr, align 8
  %12 = alloca i64, align 8
  %13 = alloca ptr, align 8
  %14 = alloca ptr, align 8
  %15 = alloca i64, align 8
  store ptr %0, ptr %4, align 8, !tbaa !16
  store ptr %1, ptr %5, align 8, !tbaa !16
  store i64 %2, ptr %6, align 8, !tbaa !3
  call void @llvm.lifetime.start.p0(i64 8, ptr %7) #9
  store i64 0, ptr %7, align 8, !tbaa !3
  %16 = load ptr, ptr %4, align 8, !tbaa !16
  %17 = getelementptr inbounds nuw %struct.malloc_state, ptr %16, i32 0, i32 15
  %18 = load i32, ptr %17, align 8, !tbaa !10
  %19 = and i32 %18, 2
  %20 = icmp ne i32 %19, 0
  br i1 %20, label %21, label %32

21:                                               ; preds = %3
  %22 = load ptr, ptr %4, align 8, !tbaa !16
  %23 = getelementptr inbounds nuw %struct.malloc_state, ptr %22, i32 0, i32 16
  %24 = atomicrmw xchg ptr %23, i32 1 seq_cst, align 4
  %25 = icmp ne i32 %24, 0
  br i1 %25, label %26, label %31

26:                                               ; preds = %21
  %27 = load ptr, ptr %4, align 8, !tbaa !16
  %28 = getelementptr inbounds nuw %struct.malloc_state, ptr %27, i32 0, i32 16
  %29 = call i32 @spin_acquire_lock(ptr noundef %28)
  %30 = icmp ne i32 %29, 0
  br i1 %30, label %147, label %33

31:                                               ; preds = %21
  br i1 false, label %147, label %33

32:                                               ; preds = %3
  br i1 false, label %147, label %33

33:                                               ; preds = %32, %31, %26
  call void @llvm.lifetime.start.p0(i64 8, ptr %8) #9
  call void @llvm.lifetime.start.p0(i64 8, ptr %9) #9
  %34 = load ptr, ptr %5, align 8, !tbaa !16
  %35 = load i64, ptr %6, align 8, !tbaa !3
  %36 = getelementptr inbounds nuw ptr, ptr %34, i64 %35
  store ptr %36, ptr %9, align 8, !tbaa !16
  %37 = load ptr, ptr %5, align 8, !tbaa !16
  store ptr %37, ptr %8, align 8, !tbaa !16
  br label %38

38:                                               ; preds = %123, %33
  %39 = load ptr, ptr %8, align 8, !tbaa !16
  %40 = load ptr, ptr %9, align 8, !tbaa !16
  %41 = icmp ne ptr %39, %40
  br i1 %41, label %42, label %126

42:                                               ; preds = %38
  call void @llvm.lifetime.start.p0(i64 8, ptr %10) #9
  %43 = load ptr, ptr %8, align 8, !tbaa !16
  %44 = load ptr, ptr %43, align 8, !tbaa !16
  store ptr %44, ptr %10, align 8, !tbaa !16
  %45 = load ptr, ptr %10, align 8, !tbaa !16
  %46 = icmp ne ptr %45, null
  br i1 %46, label %47, label %122

47:                                               ; preds = %42
  call void @llvm.lifetime.start.p0(i64 8, ptr %11) #9
  %48 = load ptr, ptr %10, align 8, !tbaa !16
  %49 = getelementptr inbounds i8, ptr %48, i64 -16
  store ptr %49, ptr %11, align 8, !tbaa !16
  call void @llvm.lifetime.start.p0(i64 8, ptr %12) #9
  %50 = load ptr, ptr %11, align 8, !tbaa !16
  %51 = getelementptr inbounds nuw %struct.malloc_chunk, ptr %50, i32 0, i32 1
  %52 = load i64, ptr %51, align 8, !tbaa !21
  %53 = and i64 %52, -8
  store i64 %53, ptr %12, align 8, !tbaa !3
  %54 = load ptr, ptr %8, align 8, !tbaa !16
  store ptr null, ptr %54, align 8, !tbaa !16
  %55 = load ptr, ptr %11, align 8, !tbaa !16
  %56 = load ptr, ptr %4, align 8, !tbaa !16
  %57 = getelementptr inbounds nuw %struct.malloc_state, ptr %56, i32 0, i32 4
  %58 = load ptr, ptr %57, align 8, !tbaa !19
  %59 = icmp uge ptr %55, %58
  br i1 %59, label %60, label %66

60:                                               ; preds = %47
  %61 = load ptr, ptr %11, align 8, !tbaa !16
  %62 = getelementptr inbounds nuw %struct.malloc_chunk, ptr %61, i32 0, i32 1
  %63 = load i64, ptr %62, align 8, !tbaa !21
  %64 = and i64 %63, 3
  %65 = icmp ne i64 %64, 1
  br label %66

66:                                               ; preds = %60, %47
  %67 = phi i1 [ false, %47 ], [ %65, %60 ]
  %68 = zext i1 %67 to i32
  %69 = sext i32 %68 to i64
  %70 = call i64 @llvm.expect.i64(i64 %69, i64 1)
  %71 = icmp ne i64 %70, 0
  br i1 %71, label %72, label %120

72:                                               ; preds = %66
  call void @llvm.lifetime.start.p0(i64 8, ptr %13) #9
  %73 = load ptr, ptr %8, align 8, !tbaa !16
  %74 = getelementptr inbounds ptr, ptr %73, i64 1
  store ptr %74, ptr %13, align 8, !tbaa !16
  call void @llvm.lifetime.start.p0(i64 8, ptr %14) #9
  %75 = load ptr, ptr %11, align 8, !tbaa !16
  %76 = load ptr, ptr %11, align 8, !tbaa !16
  %77 = getelementptr inbounds nuw %struct.malloc_chunk, ptr %76, i32 0, i32 1
  %78 = load i64, ptr %77, align 8, !tbaa !21
  %79 = and i64 %78, -8
  %80 = getelementptr inbounds nuw i8, ptr %75, i64 %79
  store ptr %80, ptr %14, align 8, !tbaa !16
  %81 = load ptr, ptr %13, align 8, !tbaa !16
  %82 = load ptr, ptr %9, align 8, !tbaa !16
  %83 = icmp ne ptr %81, %82
  br i1 %83, label %84, label %115

84:                                               ; preds = %72
  %85 = load ptr, ptr %13, align 8, !tbaa !16
  %86 = load ptr, ptr %85, align 8, !tbaa !16
  %87 = load ptr, ptr %14, align 8, !tbaa !16
  %88 = getelementptr inbounds nuw i8, ptr %87, i64 16
  %89 = icmp eq ptr %86, %88
  br i1 %89, label %90, label %115

90:                                               ; preds = %84
  call void @llvm.lifetime.start.p0(i64 8, ptr %15) #9
  %91 = load ptr, ptr %14, align 8, !tbaa !16
  %92 = getelementptr inbounds nuw %struct.malloc_chunk, ptr %91, i32 0, i32 1
  %93 = load i64, ptr %92, align 8, !tbaa !21
  %94 = and i64 %93, -8
  %95 = load i64, ptr %12, align 8, !tbaa !3
  %96 = add i64 %94, %95
  store i64 %96, ptr %15, align 8, !tbaa !3
  %97 = load ptr, ptr %11, align 8, !tbaa !16
  %98 = getelementptr inbounds nuw %struct.malloc_chunk, ptr %97, i32 0, i32 1
  %99 = load i64, ptr %98, align 8, !tbaa !21
  %100 = and i64 %99, 1
  %101 = load i64, ptr %15, align 8, !tbaa !3
  %102 = or i64 %100, %101
  %103 = or i64 %102, 2
  %104 = load ptr, ptr %11, align 8, !tbaa !16
  %105 = getelementptr inbounds nuw %struct.malloc_chunk, ptr %104, i32 0, i32 1
  store i64 %103, ptr %105, align 8, !tbaa !21
  %106 = load ptr, ptr %11, align 8, !tbaa !16
  %107 = load i64, ptr %15, align 8, !tbaa !3
  %108 = getelementptr inbounds nuw i8, ptr %106, i64 %107
  %109 = getelementptr inbounds nuw %struct.malloc_chunk, ptr %108, i32 0, i32 1
  %110 = load i64, ptr %109, align 8, !tbaa !21
  %111 = or i64 %110, 1
  store i64 %111, ptr %109, align 8, !tbaa !21
  %112 = load ptr, ptr %11, align 8, !tbaa !16
  %113 = getelementptr inbounds nuw i8, ptr %112, i64 16
  %114 = load ptr, ptr %13, align 8, !tbaa !16
  store ptr %113, ptr %114, align 8, !tbaa !16
  call void @llvm.lifetime.end.p0(i64 8, ptr %15) #9
  br label %119

115:                                              ; preds = %84, %72
  %116 = load ptr, ptr %4, align 8, !tbaa !16
  %117 = load ptr, ptr %11, align 8, !tbaa !16
  %118 = load i64, ptr %12, align 8, !tbaa !3
  call void @dispose_chunk(ptr noundef %116, ptr noundef %117, i64 noundef %118)
  br label %119

119:                                              ; preds = %115, %90
  call void @llvm.lifetime.end.p0(i64 8, ptr %14) #9
  call void @llvm.lifetime.end.p0(i64 8, ptr %13) #9
  br label %121

120:                                              ; preds = %66
  call void @abort() #10
  unreachable

121:                                              ; preds = %119
  call void @llvm.lifetime.end.p0(i64 8, ptr %12) #9
  call void @llvm.lifetime.end.p0(i64 8, ptr %11) #9
  br label %122

122:                                              ; preds = %121, %42
  call void @llvm.lifetime.end.p0(i64 8, ptr %10) #9
  br label %123

123:                                              ; preds = %122
  %124 = load ptr, ptr %8, align 8, !tbaa !16
  %125 = getelementptr inbounds nuw ptr, ptr %124, i32 1
  store ptr %125, ptr %8, align 8, !tbaa !16
  br label %38, !llvm.loop !70

126:                                              ; preds = %38
  %127 = load ptr, ptr %4, align 8, !tbaa !16
  %128 = getelementptr inbounds nuw %struct.malloc_state, ptr %127, i32 0, i32 3
  %129 = load i64, ptr %128, align 8, !tbaa !26
  %130 = load ptr, ptr %4, align 8, !tbaa !16
  %131 = getelementptr inbounds nuw %struct.malloc_state, ptr %130, i32 0, i32 7
  %132 = load i64, ptr %131, align 8, !tbaa !61
  %133 = icmp ugt i64 %129, %132
  br i1 %133, label %134, label %137

134:                                              ; preds = %126
  %135 = load ptr, ptr %4, align 8, !tbaa !16
  %136 = call i32 @sys_trim(ptr noundef %135, i64 noundef 0)
  br label %137

137:                                              ; preds = %134, %126
  %138 = load ptr, ptr %4, align 8, !tbaa !16
  %139 = getelementptr inbounds nuw %struct.malloc_state, ptr %138, i32 0, i32 15
  %140 = load i32, ptr %139, align 8, !tbaa !10
  %141 = and i32 %140, 2
  %142 = icmp ne i32 %141, 0
  br i1 %142, label %143, label %146

143:                                              ; preds = %137
  %144 = load ptr, ptr %4, align 8, !tbaa !16
  %145 = getelementptr inbounds nuw %struct.malloc_state, ptr %144, i32 0, i32 16
  store atomic i32 0, ptr %145 release, align 4
  br label %146

146:                                              ; preds = %143, %137
  call void @llvm.lifetime.end.p0(i64 8, ptr %9) #9
  call void @llvm.lifetime.end.p0(i64 8, ptr %8) #9
  br label %147

147:                                              ; preds = %146, %32, %31, %26
  %148 = load i64, ptr %7, align 8, !tbaa !3
  call void @llvm.lifetime.end.p0(i64 8, ptr %7) #9
  ret i64 %148
}