; Function Attrs: nounwind uwtable
define internal fastcc void @internal_bulk_free(ptr noundef %0, ptr noundef %1, i64 noundef %2) unnamed_addr #0 {
  %4 = getelementptr inbounds nuw i8, ptr %0, i64 880
  %5 = load i32, ptr %4, align 8, !tbaa !9
  %6 = and i32 %5, 2
  %.not = icmp eq i32 %6, 0
  br i1 %.not, label %spin_acquire_lock.exit, label %7

7:                                                ; preds = %3
  %8 = getelementptr inbounds nuw i8, ptr %0, i64 884
  %9 = atomicrmw xchg ptr %8, i32 1 seq_cst, align 4
  %.not44 = icmp eq i32 %9, 0
  br i1 %.not44, label %spin_acquire_lock.exit, label %.preheader

.preheader:                                       ; preds = %7, %.preheader.backedge
  %.0.i = phi i32 [ %13, %.preheader.backedge ], [ 0, %7 ]
  %10 = load volatile i32, ptr %8, align 4, !tbaa !13
  %.not.i = icmp eq i32 %10, 0
  br i1 %.not.i, label %11, label %.critedge.i

11:                                               ; preds = %.preheader
  %12 = atomicrmw xchg ptr %8, i32 1 seq_cst, align 4
  %.not2.i = icmp eq i32 %12, 0
  br i1 %.not2.i, label %spin_acquire_lock.exit, label %.critedge.i

.critedge.i:                                      ; preds = %11, %.preheader
  %13 = add nuw nsw i32 %.0.i, 1
  %14 = and i32 %13, 63
  %15 = icmp eq i32 %14, 0
  br i1 %15, label %16, label %.preheader.backedge

16:                                               ; preds = %.critedge.i
  %17 = tail call i32 @sched_yield() #17
  br label %.preheader.backedge

.preheader.backedge:                              ; preds = %16, %.critedge.i
  br label %.preheader, !llvm.loop !14

spin_acquire_lock.exit:                           ; preds = %11, %3, %7
  %18 = getelementptr inbounds nuw ptr, ptr %1, i64 %2
  %.not4551 = icmp eq i64 %2, 0
  br i1 %.not4551, label %._crit_edge, label %.lr.ph

.lr.ph:                                           ; preds = %spin_acquire_lock.exit
  %19 = getelementptr inbounds nuw i8, ptr %0, i64 24
  br label %20

20:                                               ; preds = %.lr.ph, %50
  %.052 = phi ptr [ %1, %.lr.ph ], [ %51, %50 ]
  %21 = load ptr, ptr %.052, align 8, !tbaa !37
  %.not47 = icmp eq ptr %21, null
  br i1 %.not47, label %50, label %22

22:                                               ; preds = %20
  %23 = getelementptr inbounds i8, ptr %21, i64 -16
  %24 = getelementptr inbounds i8, ptr %21, i64 -8
  %25 = load i64, ptr %24, align 8, !tbaa !23
  %26 = and i64 %25, -8
  store ptr null, ptr %.052, align 8, !tbaa !37
  %27 = load ptr, ptr %19, align 8, !tbaa !19
  %.not48 = icmp uge ptr %23, %27
  %28 = and i64 %25, 3
  %29 = icmp ne i64 %28, 1
  %or.cond = select i1 %.not48, i1 %29, i1 false
  br i1 %or.cond, label %30, label %.critedge, !prof !77

30:                                               ; preds = %22
  %31 = getelementptr inbounds i8, ptr %.052, i64 8
  %32 = getelementptr inbounds nuw i8, ptr %23, i64 %26
  %.not49 = icmp eq ptr %31, %18
  br i1 %.not49, label %49, label %33

33:                                               ; preds = %30
  %34 = load ptr, ptr %31, align 8, !tbaa !37
  %35 = getelementptr inbounds nuw i8, ptr %32, i64 16
  %36 = icmp eq ptr %34, %35
  br i1 %36, label %37, label %49

37:                                               ; preds = %33
  %38 = getelementptr inbounds nuw i8, ptr %32, i64 8
  %39 = load i64, ptr %38, align 8, !tbaa !23
  %40 = and i64 %39, -8
  %41 = add i64 %40, %26
  %42 = and i64 %25, 1
  %43 = or disjoint i64 %42, %41
  %44 = or disjoint i64 %43, 2
  store i64 %44, ptr %24, align 8, !tbaa !23
  %45 = getelementptr inbounds nuw i8, ptr %23, i64 %41
  %46 = getelementptr inbounds nuw i8, ptr %45, i64 8
  %47 = load i64, ptr %46, align 8, !tbaa !23
  %48 = or i64 %47, 1
  store i64 %48, ptr %46, align 8, !tbaa !23
  store ptr %21, ptr %31, align 8, !tbaa !37
  br label %50

49:                                               ; preds = %33, %30
  tail call fastcc void @dispose_chunk(ptr noundef nonnull %0, ptr noundef nonnull %23, i64 noundef %26)
  br label %50

.critedge:                                        ; preds = %22
  tail call void @abort() #18
  unreachable

50:                                               ; preds = %37, %49, %20
  %51 = getelementptr inbounds nuw i8, ptr %.052, i64 8
  %.not45 = icmp eq ptr %51, %18
  br i1 %.not45, label %._crit_edge, label %20, !llvm.loop !78

._crit_edge:                                      ; preds = %50, %spin_acquire_lock.exit
  %52 = getelementptr inbounds nuw i8, ptr %0, i64 16
  %53 = load i64, ptr %52, align 8, !tbaa !28
  %54 = getelementptr inbounds nuw i8, ptr %0, i64 48
  %55 = load i64, ptr %54, align 8, !tbaa !57
  %56 = icmp ugt i64 %53, %55
  br i1 %56, label %57, label %59

57:                                               ; preds = %._crit_edge
  %58 = tail call fastcc i32 @sys_trim(ptr noundef nonnull %0, i64 noundef 0)
  br label %59

59:                                               ; preds = %57, %._crit_edge
  %60 = load i32, ptr %4, align 8, !tbaa !9
  %61 = and i32 %60, 2
  %.not46 = icmp eq i32 %61, 0
  br i1 %.not46, label %64, label %62

62:                                               ; preds = %59
  %63 = getelementptr inbounds nuw i8, ptr %0, i64 884
  store atomic i32 0, ptr %63 release, align 4
  br label %64

64:                                               ; preds = %59, %62
  ret void
}